target datalayout = "e-m:e-p270:32:32-p271:32:32-p272:64:64-i64:64-i128:128-f80:128-n8:16:32:64-S128"
target triple = "x86_64-unknown-linux-gnu"

%struct.QTailQLink = type { ptr, ptr }
%struct.BlockDriverState = type { i32, i8, i8, i8, i8, i8, ptr, ptr, ptr, %struct.anon.0, i8, [4096 x i8], [4096 x i8], [4096 x i8], [16 x i8], ptr, [4096 x i8], %struct.BlockLimits, i32, i32, i32, i32, [32 x i8], %union.anon, %union.anon.1, %union.anon.2, i32, [16 x %struct.anon.3], ptr, %struct.anon.4, ptr, ptr, %struct.anon.5, ptr, ptr, i32, ptr, i64, i64, %struct.QemuMutex, %struct.anon.6, %struct.Stat64, i32, i32, i32, i32, i32, i32, %struct.QemuMutex, %struct.anon.7, %struct.CoQueue, i8, i32, i8, %struct.CoMutex, ptr, ptr }
%struct.anon.0 = type { ptr }
%struct.BlockLimits = type { i32, i64, i32, i64, i32, i32, i32, i64, i32, i64, i64, i32, i8, i32, i32, i32, i32, i32, i32, i32 }
%union.anon = type { %struct.QTailQLink }
%union.anon.1 = type { %struct.QTailQLink }
%union.anon.2 = type { %struct.QTailQLink }
%struct.anon.3 = type { ptr }
%struct.anon.4 = type { ptr }
%struct.anon.5 = type { ptr }
%struct.anon.6 = type { ptr }
%struct.Stat64 = type { i64 }
%struct.QemuMutex = type { %union.pthread_mutex_t, i8 }
%union.pthread_mutex_t = type { %struct.__pthread_mutex_s }
%struct.__pthread_mutex_s = type { i32, i32, i32, i32, i32, i16, i16, %struct.__pthread_internal_list }
%struct.__pthread_internal_list = type { ptr, ptr }
%struct.anon.7 = type { ptr }
%struct.CoQueue = type { %struct.anon.8 }
%struct.anon.8 = type { ptr, ptr }
%struct.CoMutex = type { i32, ptr, %struct.anon.9, %struct.anon.9, i32, i32, ptr }
%struct.anon.9 = type { ptr }
%struct.BDRVQuorumState = type { ptr, i32, i32, i32, i8, i8, i32 }
%struct.BdrvChild = type { ptr, ptr, ptr, i32, ptr, i64, i64, i8, i8, %struct.anon.10, %struct.anon.11 }
%struct.anon.10 = type { ptr, ptr }
%struct.anon.11 = type { ptr, ptr }

@.str.6 = private unnamed_addr constant [23 x i8] c"../qemu/block/quorum.c\00", align 1
@.str.27 = private unnamed_addr constant [12 x i8] c"children.%u\00", align 1
@.str.29 = private unnamed_addr constant [20 x i8] c"i < s->num_children\00", align 1
@__PRETTY_FUNCTION__.quorum_del_child = private unnamed_addr constant [65 x i8] c"void quorum_del_child(BlockDriverState *, BdrvChild *, Error **)\00", align 1
@__func__.quorum_del_child = private unnamed_addr constant [17 x i8] c"quorum_del_child\00", align 1
@.str.30 = private unnamed_addr constant [66 x i8] c"The number of children cannot be lower than the vote threshold %d\00", align 1
@.str.31 = private unnamed_addr constant [17 x i8] c"!s->is_blkverify\00", align 1

; Function Attrs: nounwind sspstrong uwtable
define internal void @quorum_refresh_flags(ptr noundef %bs) #0 {
entry:
  %bs.addr = alloca ptr, align 8
  %s = alloca ptr, align 8
  %i = alloca i32, align 4
  store ptr %bs, ptr %bs.addr, align 8
  %0 = load ptr, ptr %bs.addr, align 8
  %opaque = getelementptr inbounds %struct.BlockDriverState, ptr %0, i32 0, i32 7
  %1 = load ptr, ptr %opaque, align 8
  store ptr %1, ptr %s, align 8
  %2 = load ptr, ptr %bs.addr, align 8
  %supported_zero_flags = getelementptr inbounds %struct.BlockDriverState, ptr %2, i32 0, i32 20
  store i32 276, ptr %supported_zero_flags, align 8
  store i32 0, ptr %i, align 4
  br label %for.cond

for.cond:                                         ; preds = %for.inc, %entry
  %3 = load i32, ptr %i, align 4
  %4 = load ptr, ptr %s, align 8
  %num_children = getelementptr inbounds %struct.BDRVQuorumState, ptr %4, i32 0, i32 1
  %5 = load i32, ptr %num_children, align 8
  %cmp = icmp slt i32 %3, %5
  br i1 %cmp, label %for.body, label %for.end

for.body:                                         ; preds = %for.cond
  %6 = load ptr, ptr %s, align 8
  %children = getelementptr inbounds %struct.BDRVQuorumState, ptr %6, i32 0, i32 0
  %7 = load ptr, ptr %children, align 8
  %8 = load i32, ptr %i, align 4
  %idxprom = sext i32 %8 to i64
  %arrayidx = getelementptr ptr, ptr %7, i64 %idxprom
  %9 = load ptr, ptr %arrayidx, align 8
  %bs1 = getelementptr inbounds %struct.BdrvChild, ptr %9, i32 0, i32 0
  %10 = load ptr, ptr %bs1, align 8
  %supported_zero_flags2 = getelementptr inbounds %struct.BlockDriverState, ptr %10, i32 0, i32 20
  %11 = load i32, ptr %supported_zero_flags2, align 8
  %12 = load ptr, ptr %bs.addr, align 8
  %supported_zero_flags3 = getelementptr inbounds %struct.BlockDriverState, ptr %12, i32 0, i32 20
  %13 = load i32, ptr %supported_zero_flags3, align 8
  %and = and i32 %13, %11
  store i32 %and, ptr %supported_zero_flags3, align 8
  br label %for.inc

for.inc:                                          ; preds = %for.body
  %14 = load i32, ptr %i, align 4
  %inc = add i32 %14, 1
  store i32 %inc, ptr %i, align 4
  br label %for.cond, !llvm.loop !17

for.end:                                          ; preds = %for.cond
  %15 = load ptr, ptr %bs.addr, align 8
  %supported_zero_flags4 = getelementptr inbounds %struct.BlockDriverState, ptr %15, i32 0, i32 20
  %16 = load i32, ptr %supported_zero_flags4, align 8
  %or = or i32 %16, 64
  store i32 %or, ptr %supported_zero_flags4, align 8
  ret void
}

; Function Attrs: nounwind sspstrong uwtable
define internal void @quorum_del_child(ptr noundef %bs, ptr noundef %child, ptr noundef %errp) #0 {
entry:
  %bs.addr = alloca ptr, align 8
  %child.addr = alloca ptr, align 8
  %errp.addr = alloca ptr, align 8
  %s = alloca ptr, align 8
  %indexstr = alloca [32 x i8], align 16
  %i = alloca i32, align 4
  store ptr %bs, ptr %bs.addr, align 8
  store ptr %child, ptr %child.addr, align 8
  store ptr %errp, ptr %errp.addr, align 8
  %0 = load ptr, ptr %bs.addr, align 8
  %opaque = getelementptr inbounds %struct.BlockDriverState, ptr %0, i32 0, i32 7
  %1 = load ptr, ptr %opaque, align 8
  store ptr %1, ptr %s, align 8
  store i32 0, ptr %i, align 4
  br label %for.cond

for.cond:                                         ; preds = %for.inc, %entry
  %2 = load i32, ptr %i, align 4
  %3 = load ptr, ptr %s, align 8
  %num_children = getelementptr inbounds %struct.BDRVQuorumState, ptr %3, i32 0, i32 1
  %4 = load i32, ptr %num_children, align 8
  %cmp = icmp slt i32 %2, %4
  br i1 %cmp, label %for.body, label %for.end

for.body:                                         ; preds = %for.cond
  %5 = load ptr, ptr %s, align 8
  %children = getelementptr inbounds %struct.BDRVQuorumState, ptr %5, i32 0, i32 0
  %6 = load ptr, ptr %children, align 8
  %7 = load i32, ptr %i, align 4
  %idxprom = sext i32 %7 to i64
  %arrayidx = getelementptr ptr, ptr %6, i64 %idxprom
  %8 = load ptr, ptr %arrayidx, align 8
  %9 = load ptr, ptr %child.addr, align 8
  %cmp1 = icmp eq ptr %8, %9
  br i1 %cmp1, label %if.then, label %if.end

if.then:                                          ; preds = %for.body
  br label %for.end

if.end:                                           ; preds = %for.body
  br label %for.inc

for.inc:                                          ; preds = %if.end
  %10 = load i32, ptr %i, align 4
  %inc = add i32 %10, 1
  store i32 %inc, ptr %i, align 4
  br label %for.cond, !llvm.loop !11

for.end:                                          ; preds = %if.then, %for.cond
  %11 = load i32, ptr %i, align 4
  %12 = load ptr, ptr %s, align 8
  %num_children2 = getelementptr inbounds %struct.BDRVQuorumState, ptr %12, i32 0, i32 1
  %13 = load i32, ptr %num_children2, align 8
  %cmp3 = icmp slt i32 %11, %13
  br i1 %cmp3, label %if.then4, label %if.else

if.then4:                                         ; preds = %for.end
  br label %if.end5

if.else:                                          ; preds = %for.end
  call void @__assert_fail(ptr noundef @.str.29, ptr noundef @.str.6, i32 noundef 1124, ptr noundef @__PRETTY_FUNCTION__.quorum_del_child) #9
  unreachable

if.end5:                                          ; preds = %if.then4
  %14 = load ptr, ptr %s, align 8
  %num_children6 = getelementptr inbounds %struct.BDRVQuorumState, ptr %14, i32 0, i32 1
  %15 = load i32, ptr %num_children6, align 8
  %16 = load ptr, ptr %s, align 8
  %threshold = getelementptr inbounds %struct.BDRVQuorumState, ptr %16, i32 0, i32 3
  %17 = load i32, ptr %threshold, align 8
  %cmp7 = icmp sle i32 %15, %17
  br i1 %cmp7, label %if.then8, label %if.end10

if.then8:                                         ; preds = %if.end5
  %18 = load ptr, ptr %errp.addr, align 8
  %19 = load ptr, ptr %s, align 8
  %threshold9 = getelementptr inbounds %struct.BDRVQuorumState, ptr %19, i32 0, i32 3
  %20 = load i32, ptr %threshold9, align 8
  call void (ptr, ptr, i32, ptr, ptr, ...) @error_setg_internal(ptr noundef %18, ptr noundef @.str.6, i32 noundef 1129, ptr noundef @__func__.quorum_del_child, ptr noundef @.str.30, i32 noundef %20)
  br label %return

if.end10:                                         ; preds = %if.end5
  %21 = load ptr, ptr %s, align 8
  %is_blkverify = getelementptr inbounds %struct.BDRVQuorumState, ptr %21, i32 0, i32 4
  %22 = load i8, ptr %is_blkverify, align 4
  %tobool = trunc i8 %22 to i1
  br i1 %tobool, label %if.else12, label %if.then11

if.then11:                                        ; preds = %if.end10
  br label %if.end13

if.else12:                                        ; preds = %if.end10
  call void @__assert_fail(ptr noundef @.str.31, ptr noundef @.str.6, i32 noundef 1134, ptr noundef @__PRETTY_FUNCTION__.quorum_del_child) #9
  unreachable

if.end13:                                         ; preds = %if.then11
  %arraydecay = getelementptr inbounds [32 x i8], ptr %indexstr, i64 0, i64 0
  %23 = load ptr, ptr %s, align 8
  %next_child_index = getelementptr inbounds %struct.BDRVQuorumState, ptr %23, i32 0, i32 2
  %24 = load i32, ptr %next_child_index, align 4
  %sub = sub i32 %24, 1
  %call = call i32 (ptr, i64, ptr, ...) @snprintf(ptr noundef %arraydecay, i64 noundef 32, ptr noundef @.str.27, i32 noundef %sub) #8
  %25 = load ptr, ptr %child.addr, align 8
  %name = getelementptr inbounds %struct.BdrvChild, ptr %25, i32 0, i32 1
  %26 = load ptr, ptr %name, align 8
  %arraydecay14 = getelementptr inbounds [32 x i8], ptr %indexstr, i64 0, i64 0
  %call15 = call i32 @strncmp(ptr noundef %26, ptr noundef %arraydecay14, i64 noundef 32) #10
  %tobool16 = icmp ne i32 %call15, 0
  br i1 %tobool16, label %if.end19, label %if.then17

if.then17:                                        ; preds = %if.end13
  %27 = load ptr, ptr %s, align 8
  %next_child_index18 = getelementptr inbounds %struct.BDRVQuorumState, ptr %27, i32 0, i32 2
  %28 = load i32, ptr %next_child_index18, align 4
  %dec = add i32 %28, -1
  store i32 %dec, ptr %next_child_index18, align 4
  br label %if.end19

if.end19:                                         ; preds = %if.then17, %if.end13
  %29 = load ptr, ptr %s, align 8
  %children20 = getelementptr inbounds %struct.BDRVQuorumState, ptr %29, i32 0, i32 0
  %30 = load ptr, ptr %children20, align 8
  %31 = load i32, ptr %i, align 4
  %idxprom21 = sext i32 %31 to i64
  %arrayidx22 = getelementptr ptr, ptr %30, i64 %idxprom21
  %32 = load ptr, ptr %s, align 8
  %children23 = getelementptr inbounds %struct.BDRVQuorumState, ptr %32, i32 0, i32 0
  %33 = load ptr, ptr %children23, align 8
  %34 = load i32, ptr %i, align 4
  %add = add i32 %34, 1
  %idxprom24 = sext i32 %add to i64
  %arrayidx25 = getelementptr ptr, ptr %33, i64 %idxprom24
  %35 = load ptr, ptr %s, align 8
  %num_children26 = getelementptr inbounds %struct.BDRVQuorumState, ptr %35, i32 0, i32 1
  %36 = load i32, ptr %num_children26, align 8
  %37 = load i32, ptr %i, align 4
  %sub27 = sub i32 %36, %37
  %sub28 = sub i32 %sub27, 1
  %conv = sext i32 %sub28 to i64
  %mul = mul i64 %conv, 8
  call void @llvm.memmove.p0.p0.i64(ptr align 8 %arrayidx22, ptr align 8 %arrayidx25, i64 %mul, i1 false)
  %38 = load ptr, ptr %s, align 8
  %children29 = getelementptr inbounds %struct.BDRVQuorumState, ptr %38, i32 0, i32 0
  %39 = load ptr, ptr %children29, align 8
  %40 = load ptr, ptr %s, align 8
  %num_children30 = getelementptr inbounds %struct.BDRVQuorumState, ptr %40, i32 0, i32 1
  %41 = load i32, ptr %num_children30, align 8
  %dec31 = add i32 %41, -1
  store i32 %dec31, ptr %num_children30, align 8
  %conv32 = sext i32 %dec31 to i64
  %call33 = call ptr @g_realloc_n(ptr noundef %39, i64 noundef %conv32, i64 noundef 8)
  %42 = load ptr, ptr %s, align 8
  %children34 = getelementptr inbounds %struct.BDRVQuorumState, ptr %42, i32 0, i32 0
  store ptr %call33, ptr %children34, align 8
  %43 = load ptr, ptr %bs.addr, align 8
  %44 = load ptr, ptr %child.addr, align 8
  call void @bdrv_unref_child(ptr noundef %43, ptr noundef %44)
  %45 = load ptr, ptr %bs.addr, align 8
  call void @quorum_refresh_flags(ptr noundef %45)
  br label %return

return:                                           ; preds = %if.end19, %if.then8
  ret void
}