; Function Attrs: nounwind sspstrong uwtable
define internal void @quorum_del_child(ptr noundef %bs, ptr noundef %child, ptr noundef %errp) #0 {
entry:
  %indexstr = alloca [32 x i8], align 16
  %opaque = getelementptr inbounds nuw i8, ptr %bs, i64 24
  %0 = load ptr, ptr %opaque, align 8
  %num_children = getelementptr inbounds nuw i8, ptr %0, i64 8
  %1 = load i32, ptr %num_children, align 8
  %cmp29 = icmp sgt i32 %1, 0
  br i1 %cmp29, label %for.body.lr.ph, label %if.else

for.body.lr.ph:                                   ; preds = %entry
  %2 = load ptr, ptr %0, align 8
  %wide.trip.count = zext nneg i32 %1 to i64
  br label %for.body

for.body:                                         ; preds = %for.body.lr.ph, %for.inc
  %indvars.iv = phi i64 [ 0, %for.body.lr.ph ], [ %indvars.iv.next, %for.inc ]
  %arrayidx = getelementptr ptr, ptr %2, i64 %indvars.iv
  %3 = load ptr, ptr %arrayidx, align 8
  %cmp1 = icmp eq ptr %3, %child
  br i1 %cmp1, label %if.end5, label %for.inc

for.inc:                                          ; preds = %for.body
  %indvars.iv.next = add nuw nsw i64 %indvars.iv, 1
  %exitcond.not = icmp eq i64 %indvars.iv.next, %wide.trip.count
  br i1 %exitcond.not, label %if.else, label %for.body, !llvm.loop !12

if.else:                                          ; preds = %for.inc, %entry
  tail call void @__assert_fail(ptr noundef nonnull @.str.29, ptr noundef nonnull @.str.6, i32 noundef 1124, ptr noundef nonnull @__PRETTY_FUNCTION__.quorum_del_child) #19
  unreachable

if.end5:                                          ; preds = %for.body
  %4 = trunc nuw nsw i64 %indvars.iv to i32
  %threshold = getelementptr inbounds nuw i8, ptr %0, i64 16
  %5 = load i32, ptr %threshold, align 8
  %cmp7.not = icmp sgt i32 %1, %5
  br i1 %cmp7.not, label %if.end10, label %if.then8

if.then8:                                         ; preds = %if.end5
  tail call void (ptr, ptr, i32, ptr, ptr, ...) @error_setg_internal(ptr noundef %errp, ptr noundef nonnull @.str.6, i32 noundef 1129, ptr noundef nonnull @__func__.quorum_del_child, ptr noundef nonnull @.str.30, i32 noundef %5) #17
  br label %return

if.end10:                                         ; preds = %if.end5
  %is_blkverify = getelementptr inbounds nuw i8, ptr %0, i64 20
  %6 = load i8, ptr %is_blkverify, align 4
  %tobool = trunc i8 %6 to i1
  br i1 %tobool, label %if.else12, label %if.end13

if.else12:                                        ; preds = %if.end10
  tail call void @__assert_fail(ptr noundef nonnull @.str.31, ptr noundef nonnull @.str.6, i32 noundef 1134, ptr noundef nonnull @__PRETTY_FUNCTION__.quorum_del_child) #19
  unreachable

if.end13:                                         ; preds = %if.end10
  %next_child_index = getelementptr inbounds nuw i8, ptr %0, i64 12
  %7 = load i32, ptr %next_child_index, align 4
  %sub = add i32 %7, -1
  %call = call i32 (ptr, i64, ptr, ...) @snprintf(ptr noundef nonnull dereferenceable(1) %indexstr, i64 noundef 32, ptr noundef nonnull @.str.27, i32 noundef %sub) #17
  %name = getelementptr inbounds nuw i8, ptr %child, i64 8
  %8 = load ptr, ptr %name, align 8
  %call15 = call i32 @strncmp(ptr noundef nonnull dereferenceable(1) %8, ptr noundef nonnull dereferenceable(1) %indexstr, i64 noundef 32) #20
  %tobool16.not = icmp eq i32 %call15, 0
  br i1 %tobool16.not, label %if.then17, label %if.end19

if.then17:                                        ; preds = %if.end13
  %9 = load i32, ptr %next_child_index, align 4
  %dec = add i32 %9, -1
  store i32 %dec, ptr %next_child_index, align 4
  br label %if.end19

if.end19:                                         ; preds = %if.then17, %if.end13
  %10 = load ptr, ptr %0, align 8
  %idxprom21 = and i64 %indvars.iv, 4294967295
  %arrayidx22 = getelementptr ptr, ptr %10, i64 %idxprom21
  %arrayidx25 = getelementptr i8, ptr %arrayidx22, i64 8
  %11 = load i32, ptr %num_children, align 8
  %12 = xor i32 %4, -1
  %sub28 = add i32 %11, %12
  %conv = sext i32 %sub28 to i64
  %mul = shl nsw i64 %conv, 3
  tail call void @llvm.memmove.p0.p0.i64(ptr align 8 %arrayidx22, ptr align 8 %arrayidx25, i64 %mul, i1 false)
  %13 = load ptr, ptr %0, align 8
  %14 = load i32, ptr %num_children, align 8
  %dec31 = add i32 %14, -1
  store i32 %dec31, ptr %num_children, align 8
  %conv32 = sext i32 %dec31 to i64
  %call33 = tail call ptr @g_realloc_n(ptr noundef %13, i64 noundef %conv32, i64 noundef 8) #17
  store ptr %call33, ptr %0, align 8
  tail call void @bdrv_unref_child(ptr noundef %bs, ptr noundef nonnull %child) #17
  %15 = load ptr, ptr %opaque, align 8
  %supported_zero_flags.i = getelementptr inbounds nuw i8, ptr %bs, i64 16592
  store i32 276, ptr %supported_zero_flags.i, align 8
  %num_children.i = getelementptr inbounds nuw i8, ptr %15, i64 8
  %16 = load i32, ptr %num_children.i, align 8
  %cmp7.i = icmp sgt i32 %16, 0
  br i1 %cmp7.i, label %for.body.i, label %quorum_refresh_flags.exit

for.body.i:                                       ; preds = %if.end19, %for.body.i
  %17 = phi i32 [ %and.i, %for.body.i ], [ 276, %if.end19 ]
  %indvars.iv.i = phi i64 [ %indvars.iv.next.i, %for.body.i ], [ 0, %if.end19 ]
  %18 = load ptr, ptr %15, align 8
  %arrayidx.i = getelementptr ptr, ptr %18, i64 %indvars.iv.i
  %19 = load ptr, ptr %arrayidx.i, align 8
  %20 = load ptr, ptr %19, align 8
  %supported_zero_flags2.i = getelementptr inbounds nuw i8, ptr %20, i64 16592
  %21 = load i32, ptr %supported_zero_flags2.i, align 8
  %and.i = and i32 %21, %17
  store i32 %and.i, ptr %supported_zero_flags.i, align 8
  %indvars.iv.next.i = add nuw nsw i64 %indvars.iv.i, 1
  %22 = load i32, ptr %num_children.i, align 8
  %23 = sext i32 %22 to i64
  %cmp.i = icmp slt i64 %indvars.iv.next.i, %23
  br i1 %cmp.i, label %for.body.i, label %for.end.loopexit.i, !llvm.loop !8

for.end.loopexit.i:                               ; preds = %for.body.i
  %24 = or i32 %and.i, 64
  br label %quorum_refresh_flags.exit

quorum_refresh_flags.exit:                        ; preds = %if.end19, %for.end.loopexit.i
  %or.i = phi i32 [ %24, %for.end.loopexit.i ], [ 340, %if.end19 ]
  store i32 %or.i, ptr %supported_zero_flags.i, align 8
  br label %return

return:                                           ; preds = %quorum_refresh_flags.exit, %if.then8
  ret void
}